; Function Attrs: mustprogress uwtable
define hidden noundef nonnull align 8 dereferenceable(8) ptr @_ZN11OpenImageIO6v3_1_03pvt15exif_tagmap_refEv() local_unnamed_addr #4 personality ptr @__gxx_personality_v0 {
  %1 = alloca %"class.OpenImageIO::v3_1_0::basic_string_view", align 8
  %2 = load atomic i8, ptr @_ZGVZN11OpenImageIO6v3_1_03pvt15exif_tagmap_refEvE1T acquire, align 8
  %3 = icmp eq i8 %2, 0
  br i1 %3, label %4, label %10, !prof !13

4:                                                ; preds = %0
  %5 = tail call i32 @__cxa_guard_acquire(ptr nonnull @_ZGVZN11OpenImageIO6v3_1_03pvt15exif_tagmap_refEvE1T) #34
  %.not = icmp eq i32 %5, 0
  br i1 %.not, label %10, label %6

6:                                                ; preds = %4
  store ptr @.str.119, ptr %1, align 8, !tbaa !3
  %7 = getelementptr inbounds nuw i8, ptr %1, i64 8
  store i64 4, ptr %7, align 8, !tbaa !10
  invoke void @_ZN11OpenImageIO6v3_1_03pvt6TagMapC1ENS0_17basic_string_viewIcSt11char_traitsIcEEENS0_4spanIKNS0_7TagInfoELm18446744073709551615EEE(ptr noundef nonnull align 8 dereferenceable(8) @_ZZN11OpenImageIO6v3_1_03pvt15exif_tagmap_refEvE1T, ptr noundef nonnull %1, ptr nonnull @_ZN11OpenImageIO6v3_1_0L14exif_tag_tableE, i64 104)
          to label %8 unwind label %11

8:                                                ; preds = %6
  %9 = call i32 @__cxa_atexit(ptr nonnull @_ZN11OpenImageIO6v3_1_03pvt6TagMapD1Ev, ptr nonnull @_ZZN11OpenImageIO6v3_1_03pvt15exif_tagmap_refEvE1T, ptr nonnull @__dso_handle) #34
  call void @__cxa_guard_release(ptr nonnull @_ZGVZN11OpenImageIO6v3_1_03pvt15exif_tagmap_refEvE1T) #34
  br label %10

10:                                               ; preds = %8, %4, %0
  ret ptr @_ZZN11OpenImageIO6v3_1_03pvt15exif_tagmap_refEvE1T

11:                                               ; preds = %6
  %12 = landingpad { ptr, i32 }
          cleanup
  call void @__cxa_guard_abort(ptr nonnull @_ZGVZN11OpenImageIO6v3_1_03pvt15exif_tagmap_refEvE1T) #34
  resume { ptr, i32 } %12
}